; Function Attrs: mustprogress nounwind uwtable
define hidden noundef ptr @_ZNK8SubFNode3subEPK4TypeS2_(ptr nocapture noundef nonnull readnone align 8 dereferenceable(52) %0, ptr noundef readonly %1, ptr noundef readonly %2) unnamed_addr #0 align 2 {
  %4 = getelementptr inbounds i8, ptr %1, i64 20
  %5 = load float, ptr %4, align 4
  %6 = tail call float @llvm.fabs.f32(float %5)
  %7 = fcmp ueq float %6, 0x7FF0000000000000
  br i1 %7, label %16, label %8

8:                                                ; preds = %3
  %9 = getelementptr inbounds i8, ptr %2, i64 20
  %10 = load float, ptr %9, align 4
  %11 = tail call float @llvm.fabs.f32(float %10)
  %12 = fcmp ueq float %11, 0x7FF0000000000000
  br i1 %12, label %16, label %13

13:                                               ; preds = %8
  %14 = fsub float %5, %10
  %15 = tail call noundef ptr @_ZN5TypeF4makeEf(float noundef %14) #10
  br label %23

16:                                               ; preds = %8, %3
  %17 = fcmp ord float %5, 0.000000e+00
  br i1 %17, label %18, label %23

18:                                               ; preds = %16
  %19 = getelementptr inbounds i8, ptr %2, i64 20
  %20 = load float, ptr %19, align 4
  %21 = fcmp ord float %20, 0.000000e+00
  %22 = load ptr, ptr @_ZN4Type5FLOATE, align 8
  %spec.select = select i1 %21, ptr %22, ptr %2
  br label %23

23:                                               ; preds = %18, %16, %13
  %.0 = phi ptr [ %15, %13 ], [ %1, %16 ], [ %spec.select, %18 ]
  ret ptr %.0
}